; Function Attrs: mustprogress uwtable
define internal noundef i32 @_ZL55gsec_aes_gcm_aead_crypter_max_ciphertext_and_tag_lengthPK17gsec_aead_cryptermPmPPc(ptr nocapture noundef readonly %crypter, i64 noundef %plaintext_length, ptr noundef writeonly %max_ciphertext_and_tag_length, ptr noundef %error_details) #0 {
entry:
  %cmp = icmp eq ptr %max_ciphertext_and_tag_length, null
  br i1 %cmp, label %if.then, label %if.end

if.then:                                          ; preds = %entry
  tail call fastcc void @_ZL21aes_gcm_format_errorsPKcPPc(ptr noundef nonnull @.str.31, ptr noundef %error_details)
  br label %return

if.end:                                           ; preds = %entry
  %tag_length = getelementptr inbounds i8, ptr %crypter, i64 16
  %0 = load i64, ptr %tag_length, align 8
  %add = add i64 %0, %plaintext_length
  store i64 %add, ptr %max_ciphertext_and_tag_length, align 8
  br label %return

return:                                           ; preds = %if.end, %if.then
  %retval.0 = phi i32 [ 3, %if.then ], [ 0, %if.end ]
  ret i32 %retval.0
}